target datalayout = "e-m:e-p270:32:32-p271:32:32-p272:64:64-i64:64-i128:128-f80:128-n8:16:32:64-S128"
target triple = "x86_64-pc-linux-gnu"

%struct.stbir__sampler = type { ptr, ptr, ptr, ptr, %struct.stbir__scale_info, float, i32, ptr, ptr, i32, i32, i32, i32, i32, i32, i32, %struct.stbir__filter_extent_info, i32, i32, i32, i32, i32 }
%struct.stbir__scale_info = type { i32, i32, float, float, float, i32, i32, i32 }
%struct.stbir__filter_extent_info = type { i32, i32, i32 }
%struct.stbir__contributors = type { i32, i32 }
%struct.stbir__extents = type { %struct.stbir__contributors, [2 x i32], [2 x %struct.stbir__span] }
%struct.stbir__span = type { i32, i32, i32 }
%struct.stbir__info = type { %struct.stbir__sampler, %struct.stbir__sampler, ptr, ptr, i32, i32, i32, i32, i32, i32, ptr, ptr, ptr, %struct.stbir__extents, ptr, ptr, ptr, ptr, ptr, ptr, ptr, i32, i32, i32, i32, i32, i32, i32, i32, i32, i32, i64 }
%struct.stbir__per_split_info = type { ptr, i32, i32, i32, i32, i32, i32, i32, ptr, ptr, [64 x i8] }
%struct.STBIR_RESIZE = type { ptr, ptr, i32, i32, double, double, double, double, ptr, ptr, i32, i32, i32, i32, i32, i32, ptr, i32, i32, i32, i32, i32, i32, i32, i32, i32, i32, i32, i32, i32, i32, ptr, ptr, ptr, ptr, ptr }

; Function Attrs: nounwind uwtable
define i32 @stbir_build_samplers_with_splits(ptr noundef %0, i32 noundef %1) #3 {
  %3 = alloca i32, align 4
  %4 = alloca ptr, align 8
  %5 = alloca i32, align 4
  store ptr %0, ptr %4, align 8, !tbaa !1068
  store i32 %1, ptr %5, align 4, !tbaa !26
  %6 = load ptr, ptr %4, align 8, !tbaa !1068
  %7 = getelementptr inbounds nuw %struct.STBIR_RESIZE, ptr %6, i32 0, i32 35
  %8 = load ptr, ptr %7, align 8, !tbaa !1082
  %9 = icmp eq ptr %8, null
  br i1 %9, label %15, label %10

10:                                               ; preds = %2
  %11 = load ptr, ptr %4, align 8, !tbaa !1068
  %12 = getelementptr inbounds nuw %struct.STBIR_RESIZE, ptr %11, i32 0, i32 21
  %13 = load i32, ptr %12, align 8, !tbaa !1104
  %14 = icmp ne i32 %13, 0
  br i1 %14, label %15, label %28

15:                                               ; preds = %10, %2
  %16 = load ptr, ptr %4, align 8, !tbaa !1068
  %17 = getelementptr inbounds nuw %struct.STBIR_RESIZE, ptr %16, i32 0, i32 35
  %18 = load ptr, ptr %17, align 8, !tbaa !1082
  %19 = icmp ne ptr %18, null
  br i1 %19, label %20, label %22

20:                                               ; preds = %15
  %21 = load ptr, ptr %4, align 8, !tbaa !1068
  call void @stbir_free_samplers(ptr noundef %21)
  br label %22

22:                                               ; preds = %20, %15
  %23 = load ptr, ptr %4, align 8, !tbaa !1068
  %24 = getelementptr inbounds nuw %struct.STBIR_RESIZE, ptr %23, i32 0, i32 22
  store i32 1, ptr %24, align 4, !tbaa !1083
  %25 = load ptr, ptr %4, align 8, !tbaa !1068
  %26 = load i32, ptr %5, align 4, !tbaa !26
  %27 = call i32 @stbir__perform_build(ptr noundef %25, i32 noundef %26)
  store i32 %27, ptr %3, align 4
  br label %29

28:                                               ; preds = %10
  store i32 1, ptr %3, align 4
  br label %29

29:                                               ; preds = %28, %22
  %30 = load i32, ptr %3, align 4
  ret i32 %30
}

; Function Attrs: nounwind uwtable
define void @stbir_free_samplers(ptr noundef %0) #3 {
  %2 = alloca ptr, align 8
  store ptr %0, ptr %2, align 8, !tbaa !1068
  %3 = load ptr, ptr %2, align 8, !tbaa !1068
  %4 = getelementptr inbounds nuw %struct.STBIR_RESIZE, ptr %3, i32 0, i32 35
  %5 = load ptr, ptr %4, align 8, !tbaa !1082
  %6 = icmp ne ptr %5, null
  br i1 %6, label %7, label %15

7:                                                ; preds = %1
  %8 = load ptr, ptr %2, align 8, !tbaa !1068
  %9 = getelementptr inbounds nuw %struct.STBIR_RESIZE, ptr %8, i32 0, i32 35
  %10 = load ptr, ptr %9, align 8, !tbaa !1082
  call void @stbir__free_internal_mem(ptr noundef %10)
  %11 = load ptr, ptr %2, align 8, !tbaa !1068
  %12 = getelementptr inbounds nuw %struct.STBIR_RESIZE, ptr %11, i32 0, i32 35
  store ptr null, ptr %12, align 8, !tbaa !1082
  %13 = load ptr, ptr %2, align 8, !tbaa !1068
  %14 = getelementptr inbounds nuw %struct.STBIR_RESIZE, ptr %13, i32 0, i32 22
  store i32 0, ptr %14, align 4, !tbaa !1083
  br label %15

15:                                               ; preds = %7, %1
  ret void
}

; Function Attrs: nounwind uwtable
define i32 @stbir__perform_resize(ptr noundef %0, i32 noundef %1, i32 noundef %2) #3 {
  %4 = alloca ptr, align 8
  %5 = alloca i32, align 4
  %6 = alloca i32, align 4
  %7 = alloca ptr, align 8
  store ptr %0, ptr %4, align 8, !tbaa !519
  store i32 %1, ptr %5, align 4, !tbaa !26
  store i32 %2, ptr %6, align 4, !tbaa !26
  call void @llvm.lifetime.start.p0(i64 8, ptr %7) #12
  %8 = load ptr, ptr %4, align 8, !tbaa !519
  %9 = getelementptr inbounds nuw %struct.stbir__info, ptr %8, i32 0, i32 15
  %10 = load ptr, ptr %9, align 8, !tbaa !1052
  %11 = load i32, ptr %5, align 4, !tbaa !26
  %12 = sext i32 %11 to i64
  %13 = getelementptr inbounds %struct.stbir__per_split_info, ptr %10, i64 %12
  store ptr %13, ptr %7, align 8, !tbaa !3
  %14 = load ptr, ptr %4, align 8, !tbaa !519
  %15 = getelementptr inbounds nuw %struct.stbir__info, ptr %14, i32 0, i32 1
  %16 = getelementptr inbounds nuw %struct.stbir__sampler, ptr %15, i32 0, i32 17
  %17 = load i32, ptr %16, align 8, !tbaa !1063
  %18 = icmp ne i32 %17, 0
  br i1 %18, label %19, label %23

19:                                               ; preds = %3
  %20 = load ptr, ptr %4, align 8, !tbaa !519
  %21 = load ptr, ptr %7, align 8, !tbaa !3
  %22 = load i32, ptr %6, align 4, !tbaa !26
  call void @stbir__vertical_gather_loop(ptr noundef %20, ptr noundef %21, i32 noundef %22)
  br label %27

23:                                               ; preds = %3
  %24 = load ptr, ptr %4, align 8, !tbaa !519
  %25 = load ptr, ptr %7, align 8, !tbaa !3
  %26 = load i32, ptr %6, align 4, !tbaa !26
  call void @stbir__vertical_scatter_loop(ptr noundef %24, ptr noundef %25, i32 noundef %26)
  br label %27

27:                                               ; preds = %23, %19
  call void @llvm.lifetime.end.p0(i64 8, ptr %7) #12
  ret i32 1
}

; Function Attrs: nounwind uwtable
define i32 @stbir_build_samplers(ptr noundef %0) #3 {
  %2 = alloca ptr, align 8
  store ptr %0, ptr %2, align 8, !tbaa !1068
  %3 = load ptr, ptr %2, align 8, !tbaa !1068
  %4 = call i32 @stbir_build_samplers_with_splits(ptr noundef %3, i32 noundef 1)
  ret i32 %4
}

; Function Attrs: nounwind uwtable
define void @stbir__free_internal_mem(ptr noundef %0) #3 {
  %2 = alloca ptr, align 8
  %3 = alloca ptr, align 8
  store ptr %0, ptr %2, align 8, !tbaa !519
  %4 = load ptr, ptr %2, align 8, !tbaa !519
  %5 = icmp ne ptr %4, null
  br i1 %5, label %6, label %19

6:                                                ; preds = %1
  %7 = load ptr, ptr %2, align 8, !tbaa !519
  %8 = getelementptr inbounds nuw %struct.stbir__info, ptr %7, i32 0, i32 14
  %9 = load ptr, ptr %8, align 8, !tbaa !1041
  %10 = icmp ne ptr %9, null
  br i1 %10, label %11, label %18

11:                                               ; preds = %6
  call void @llvm.lifetime.start.p0(i64 8, ptr %3) #12
  %12 = load ptr, ptr %2, align 8, !tbaa !519
  %13 = getelementptr inbounds nuw %struct.stbir__info, ptr %12, i32 0, i32 14
  %14 = load ptr, ptr %13, align 8, !tbaa !1041
  store ptr %14, ptr %3, align 8, !tbaa !3
  %15 = load ptr, ptr %2, align 8, !tbaa !519
  %16 = getelementptr inbounds nuw %struct.stbir__info, ptr %15, i32 0, i32 14
  store ptr null, ptr %16, align 8, !tbaa !1041
  %17 = load ptr, ptr %3, align 8, !tbaa !3
  call void @free(ptr noundef %17) #12
  call void @llvm.lifetime.end.p0(i64 8, ptr %3) #12
  br label %18

18:                                               ; preds = %11, %6
  br label %19

19:                                               ; preds = %18, %1
  ret void
}

; Function Attrs: nounwind uwtable
define i32 @stbir_resize_extended(ptr noundef %0) #3 {
  %2 = alloca i32, align 4
  %3 = alloca ptr, align 8
  %4 = alloca i32, align 4
  %5 = alloca i32, align 4
  %6 = alloca i32, align 4
  store ptr %0, ptr %3, align 8, !tbaa !1068
  call void @llvm.lifetime.start.p0(i64 4, ptr %4) #12
  %7 = load ptr, ptr %3, align 8, !tbaa !1068
  %8 = getelementptr inbounds nuw %struct.STBIR_RESIZE, ptr %7, i32 0, i32 35
  %9 = load ptr, ptr %8, align 8, !tbaa !1082
  %10 = icmp eq ptr %9, null
  br i1 %10, label %16, label %11

11:                                               ; preds = %1
  %12 = load ptr, ptr %3, align 8, !tbaa !1068
  %13 = getelementptr inbounds nuw %struct.STBIR_RESIZE, ptr %12, i32 0, i32 21
  %14 = load i32, ptr %13, align 8, !tbaa !1104
  %15 = icmp ne i32 %14, 0
  br i1 %15, label %16, label %48

16:                                               ; preds = %11, %1
  call void @llvm.lifetime.start.p0(i64 4, ptr %5) #12
  %17 = load ptr, ptr %3, align 8, !tbaa !1068
  %18 = getelementptr inbounds nuw %struct.STBIR_RESIZE, ptr %17, i32 0, i32 22
  %19 = load i32, ptr %18, align 4, !tbaa !1083
  store i32 %19, ptr %5, align 4, !tbaa !26
  %20 = load ptr, ptr %3, align 8, !tbaa !1068
  %21 = getelementptr inbounds nuw %struct.STBIR_RESIZE, ptr %20, i32 0, i32 35
  %22 = load ptr, ptr %21, align 8, !tbaa !1082
  %23 = icmp ne ptr %22, null
  br i1 %23, label %24, label %30

24:                                               ; preds = %16
  %25 = load ptr, ptr %3, align 8, !tbaa !1068
  %26 = getelementptr inbounds nuw %struct.STBIR_RESIZE, ptr %25, i32 0, i32 35
  %27 = load ptr, ptr %26, align 8, !tbaa !1082
  call void @stbir__free_internal_mem(ptr noundef %27)
  %28 = load ptr, ptr %3, align 8, !tbaa !1068
  %29 = getelementptr inbounds nuw %struct.STBIR_RESIZE, ptr %28, i32 0, i32 35
  store ptr null, ptr %29, align 8, !tbaa !1082
  br label %30

30:                                               ; preds = %24, %16
  %31 = load ptr, ptr %3, align 8, !tbaa !1068
  %32 = call i32 @stbir_build_samplers(ptr noundef %31)
  %33 = icmp ne i32 %32, 0
  br i1 %33, label %35, label %34

34:                                               ; preds = %30
  store i32 0, ptr %2, align 4
  store i32 1, ptr %6, align 4
  br label %45

35:                                               ; preds = %30
  %36 = load i32, ptr %5, align 4, !tbaa !26
  %37 = load ptr, ptr %3, align 8, !tbaa !1068
  %38 = getelementptr inbounds nuw %struct.STBIR_RESIZE, ptr %37, i32 0, i32 22
  store i32 %36, ptr %38, align 4, !tbaa !1083
  %39 = load ptr, ptr %3, align 8, !tbaa !1068
  %40 = getelementptr inbounds nuw %struct.STBIR_RESIZE, ptr %39, i32 0, i32 35
  %41 = load ptr, ptr %40, align 8, !tbaa !1082
  %42 = icmp eq ptr %41, null
  br i1 %42, label %43, label %44

43:                                               ; preds = %35
  store i32 1, ptr %2, align 4
  store i32 1, ptr %6, align 4
  br label %45

44:                                               ; preds = %35
  store i32 0, ptr %6, align 4
  br label %45

45:                                               ; preds = %44, %43, %34
  call void @llvm.lifetime.end.p0(i64 4, ptr %5) #12
  %46 = load i32, ptr %6, align 4
  switch i32 %46, label %67 [
    i32 0, label %47
  ]

47:                                               ; preds = %45
  br label %49

48:                                               ; preds = %11
  br label %49

49:                                               ; preds = %48, %47
  %50 = load ptr, ptr %3, align 8, !tbaa !1068
  %51 = getelementptr inbounds nuw %struct.STBIR_RESIZE, ptr %50, i32 0, i32 35
  %52 = load ptr, ptr %51, align 8, !tbaa !1082
  %53 = load ptr, ptr %3, align 8, !tbaa !1068
  %54 = getelementptr inbounds nuw %struct.STBIR_RESIZE, ptr %53, i32 0, i32 19
  %55 = load i32, ptr %54, align 8, !tbaa !1108
  %56 = call i32 @stbir__perform_resize(ptr noundef %52, i32 noundef 0, i32 noundef %55)
  store i32 %56, ptr %4, align 4, !tbaa !26
  %57 = load ptr, ptr %3, align 8, !tbaa !1068
  %58 = getelementptr inbounds nuw %struct.STBIR_RESIZE, ptr %57, i32 0, i32 22
  %59 = load i32, ptr %58, align 4, !tbaa !1083
  %60 = icmp ne i32 %59, 0
  br i1 %60, label %65, label %61

61:                                               ; preds = %49
  %62 = load ptr, ptr %3, align 8, !tbaa !1068
  call void @stbir_free_samplers(ptr noundef %62)
  %63 = load ptr, ptr %3, align 8, !tbaa !1068
  %64 = getelementptr inbounds nuw %struct.STBIR_RESIZE, ptr %63, i32 0, i32 35
  store ptr null, ptr %64, align 8, !tbaa !1082
  br label %65

65:                                               ; preds = %61, %49
  %66 = load i32, ptr %4, align 4, !tbaa !26
  store i32 %66, ptr %2, align 4
  store i32 1, ptr %6, align 4
  br label %67

67:                                               ; preds = %65, %45
  call void @llvm.lifetime.end.p0(i64 4, ptr %4) #12
  %68 = load i32, ptr %2, align 4
  ret i32 %68
}