; Function Attrs: nounwind uwtable
define range(i32 0, 2) i32 @stbir_resize_extended(ptr noundef captures(none) %0) local_unnamed_addr #4 {
  %2 = getelementptr inbounds nuw i8, ptr %0, i64 192
  %3 = load ptr, ptr %2, align 8, !tbaa !1005
  %4 = icmp eq ptr %3, null
  br i1 %4, label %.thread, label %7

.thread:                                          ; preds = %1
  %5 = getelementptr inbounds nuw i8, ptr %0, i64 124
  %6 = load i32, ptr %5, align 4, !tbaa !990
  br label %stbir_build_samplers.exit

7:                                                ; preds = %1
  %8 = getelementptr inbounds nuw i8, ptr %0, i64 120
  %9 = load i32, ptr %8, align 8, !tbaa !1001
  %.not = icmp eq i32 %9, 0
  br i1 %.not, label %21, label %10

10:                                               ; preds = %7
  %11 = getelementptr inbounds nuw i8, ptr %0, i64 124
  %12 = load i32, ptr %11, align 4, !tbaa !990
  %13 = getelementptr inbounds nuw i8, ptr %3, i64 408
  %14 = load ptr, ptr %13, align 8, !tbaa !950
  %.not6.i = icmp eq ptr %14, null
  br i1 %.not6.i, label %stbir__free_internal_mem.exit, label %15

15:                                               ; preds = %10
  store ptr null, ptr %13, align 8, !tbaa !950
  tail call void @free(ptr noundef nonnull %14) #24
  br label %stbir__free_internal_mem.exit

stbir__free_internal_mem.exit:                    ; preds = %10, %15
  store ptr null, ptr %2, align 8, !tbaa !1005
  br label %stbir_build_samplers.exit

stbir_build_samplers.exit:                        ; preds = %.thread, %stbir__free_internal_mem.exit
  %16 = phi i32 [ %6, %.thread ], [ %12, %stbir__free_internal_mem.exit ]
  %17 = phi ptr [ %5, %.thread ], [ %11, %stbir__free_internal_mem.exit ]
  store i32 1, ptr %17, align 4, !tbaa !990
  %18 = tail call i32 @stbir__perform_build(ptr noundef nonnull %0, i32 noundef 1)
  %.not20 = icmp eq i32 %18, 0
  br i1 %.not20, label %.thread25, label %19

19:                                               ; preds = %stbir_build_samplers.exit
  store i32 %16, ptr %17, align 4, !tbaa !990
  %20 = load ptr, ptr %2, align 8, !tbaa !1005
  %.not28 = icmp eq ptr %20, null
  br i1 %.not28, label %.thread25, label %21

21:                                               ; preds = %7, %19
  %22 = phi ptr [ %3, %7 ], [ %20, %19 ]
  %23 = getelementptr inbounds nuw i8, ptr %0, i64 112
  %24 = load i32, ptr %23, align 8, !tbaa !1016
  %25 = getelementptr inbounds nuw i8, ptr %22, i64 416
  %26 = load ptr, ptr %25, align 8, !tbaa !960
  %27 = getelementptr inbounds nuw i8, ptr %22, i64 280
  %28 = load i32, ptr %27, align 8, !tbaa !971
  %.not.i23 = icmp eq i32 %28, 0
  br i1 %.not.i23, label %30, label %29

29:                                               ; preds = %21
  tail call void @stbir__vertical_gather_loop(ptr noundef nonnull %22, ptr noundef %26, i32 noundef %24)
  br label %stbir__perform_resize.exit

30:                                               ; preds = %21
  tail call void @stbir__vertical_scatter_loop(ptr noundef nonnull %22, ptr noundef %26, i32 noundef %24)
  br label %stbir__perform_resize.exit

stbir__perform_resize.exit:                       ; preds = %29, %30
  %31 = getelementptr inbounds nuw i8, ptr %0, i64 124
  %32 = load i32, ptr %31, align 4, !tbaa !990
  %.not21 = icmp eq i32 %32, 0
  br i1 %.not21, label %33, label %.thread25

33:                                               ; preds = %stbir__perform_resize.exit
  %34 = load ptr, ptr %2, align 8, !tbaa !1005
  %.not.i24 = icmp eq ptr %34, null
  br i1 %.not.i24, label %stbir_free_samplers.exit, label %35

35:                                               ; preds = %33
  %36 = getelementptr inbounds nuw i8, ptr %34, i64 408
  %37 = load ptr, ptr %36, align 8, !tbaa !950
  %.not6.i.i = icmp eq ptr %37, null
  br i1 %.not6.i.i, label %stbir__free_internal_mem.exit.i, label %38

38:                                               ; preds = %35
  store ptr null, ptr %36, align 8, !tbaa !950
  tail call void @free(ptr noundef nonnull %37) #24
  br label %stbir__free_internal_mem.exit.i

stbir__free_internal_mem.exit.i:                  ; preds = %38, %35
  store i32 0, ptr %31, align 4, !tbaa !990
  br label %stbir_free_samplers.exit

stbir_free_samplers.exit:                         ; preds = %33, %stbir__free_internal_mem.exit.i
  store ptr null, ptr %2, align 8, !tbaa !1005
  br label %.thread25

.thread25:                                        ; preds = %stbir_build_samplers.exit, %stbir__perform_resize.exit, %stbir_free_samplers.exit, %19
  %.1 = phi i32 [ 1, %19 ], [ 1, %stbir_free_samplers.exit ], [ 1, %stbir__perform_resize.exit ], [ 0, %stbir_build_samplers.exit ]
  ret i32 %.1
}